ccopy_reg
_reconstructor
p0
(cGramaticas.Gramatica
Gramatica
p1
c__builtin__
object
p2
Ntp3
Rp4
(dp5
S'producaoInicial'
p6
(iGramaticas.Producao
Producao
p7
(dp8
S'_Producao__alfa'
p9
S'S'
p10
sS'_Producao__beta'
p11
S'aA|b'
p12
sbsS'terminais'
p13
c__builtin__
set
p14
((lp15
S'a'
p16
aS'c'
p17
aS'b'
p18
atp19
Rp20
sS'naoTerminais'
p21
g14
((lp22
S'A'
p23
ag10
atp24
Rp25
sS'producoes'
p26
(lp27
g7
a(iGramaticas.Producao
Producao
p28
(dp29
g9
g23
sg11
g17
sbasb.