ccopy_reg
_reconstructor
p0
(cGramaticas.Gramatica
Gramatica
p1
c__builtin__
object
p2
Ntp3
Rp4
(dp5
S'producaoInicial'
p6
(iGramaticas.Producao
Producao
p7
(dp8
S'_Producao__alfa'
p9
S'S'
p10
sS'_Producao__beta'
p11
S'aS|bB|c'
p12
sbsS'terminais'
p13
c__builtin__
set
p14
((lp15
S'a'
p16
aS'c'
p17
aS'b'
p18
atp19
Rp20
sS'naoTerminais'
p21
g14
((lp22
S'S'
p23
aS'B'
p24
atp25
Rp26
sS'producoes'
p27
(lp28
g7
a(iGramaticas.Producao
Producao
p29
(dp30
g9
S'B'
p31
sg11
S'b'
p32
sbasb.
