ccopy_reg
_reconstructor
p0
(cAutomatos.Automato
Automato
p1
c__builtin__
object
p2
Ntp3
Rp4
(dp5
S'tabelaTransicao'
p6
(dp7
sS'alfabeto'
p8
c__builtin__
set
p9
((lp10
tp11
Rp12
sS'estadoInicial'
p13
S'S'
p14
sS'estadosFinais'
p15
NsS'estados'
p16
g9
((lp17
tp18
Rp19
sb.