ccopy_reg
_reconstructor
p0
(cAutomatos.Automato
Automato
p1
c__builtin__
object
p2
Ntp3
Rp4
(dp5
S'tabelaTransicao'
p6
(dp7
S'A'
p8
(dp9
S'c'
p10
S'F'
p11
ssS'S'
p12
(dp13
S'a'
p14
g8
sS'b'
p15
g11
ssS'F'
p16
(dp17
ssS'alfabeto'
p18
c__builtin__
set
p19
((lp20
g14
ag10
ag15
atp21
Rp22
sS'estadoInicial'
p23
S'S'
p24
sS'estadosFinais'
p25
(lp26
g11
asS'estados'
p27
(lp28
g8
ag24
ag11
asb.