ccopy_reg
_reconstructor
p0
(cAutomatos.Automato
Automato
p1
c__builtin__
object
p2
Ntp3
Rp4
(dp5
S'tabelaTransicao'
p6
(dp7
S'F'
p8
(dp9
S'a'
p10
S'F'
p11
sssS'alfabeto'
p12
c__builtin__
set
p13
((lp14
S'a'
p15
atp16
Rp17
sS'estadoInicial'
p18
S'*F'
p19
sS'estadosFinais'
p20
g13
((lp21
S'F'
p22
atp23
Rp24
sS'estados'
p25
g13
((lp26
g22
atp27
Rp28
sb.